target datalayout = "e-m:e-p270:32:32-p271:32:32-p272:64:64-i64:64-i128:128-f80:128-n8:16:32:64-S128"
target triple = "x86_64-pc-linux-gnu"

%struct.WebPIDecoder = type { i32, %struct.WebPDecParams, i32, ptr, %struct.VP8Io, %struct.MemBuffer, %struct.WebPDecBuffer, ptr, i64, i32 }
%struct.WebPDecParams = type { ptr, ptr, ptr, ptr, i32, ptr, ptr, ptr, ptr, ptr, ptr, ptr, ptr, ptr }
%struct.VP8Io = type { i32, i32, i32, i32, i32, ptr, ptr, ptr, i32, i32, ptr, ptr, ptr, ptr, i32, i64, ptr, i32, i32, i32, i32, i32, i32, i32, i32, i32, ptr }
%struct.MemBuffer = type { i32, i64, i64, i64, ptr, i64, ptr }
%struct.WebPDecBuffer = type { i32, i32, i32, i32, %union.anon, [4 x i32], ptr }
%union.anon = type { %struct.WebPYUVABuffer }
%struct.WebPYUVABuffer = type { ptr, ptr, ptr, ptr, i32, i32, i32, i32, i64, i64, i64, i64 }
%struct.WebPRGBABuffer = type { ptr, i32, i64 }

; Function Attrs: nounwind uwtable
define ptr @WebPINewDecoder(ptr noundef %0) #0 {
  %2 = alloca ptr, align 8
  store ptr %0, ptr %2, align 8, !tbaa !3
  %3 = load ptr, ptr %2, align 8, !tbaa !3
  %4 = call ptr @NewDecoder(ptr noundef %3, ptr noundef null)
  ret ptr %4
}

; Function Attrs: nounwind uwtable
define ptr @WebPINewRGB(i32 noundef %0, ptr noundef %1, i64 noundef %2, i32 noundef %3) #0 {
  %5 = alloca ptr, align 8
  %6 = alloca i32, align 4
  %7 = alloca ptr, align 8
  %8 = alloca i64, align 8
  %9 = alloca i32, align 4
  %10 = alloca i32, align 4
  %11 = alloca ptr, align 8
  %12 = alloca i32, align 4
  store i32 %0, ptr %6, align 4, !tbaa !39
  store ptr %1, ptr %7, align 8, !tbaa !28
  store i64 %2, ptr %8, align 8, !tbaa !29
  store i32 %3, ptr %9, align 4, !tbaa !39
  call void @llvm.lifetime.start.p0(i64 4, ptr %10) #6
  %13 = load ptr, ptr %7, align 8, !tbaa !28
  %14 = icmp ne ptr %13, null
  %15 = select i1 %14, i32 1, i32 0
  store i32 %15, ptr %10, align 4, !tbaa !39
  call void @llvm.lifetime.start.p0(i64 8, ptr %11) #6
  %16 = load i32, ptr %6, align 4, !tbaa !39
  %17 = icmp uge i32 %16, 11
  br i1 %17, label %18, label %19

18:                                               ; preds = %4
  store ptr null, ptr %5, align 8
  store i32 1, ptr %12, align 4
  br label %61

19:                                               ; preds = %4
  %20 = load i32, ptr %10, align 4, !tbaa !39
  %21 = icmp eq i32 %20, 0
  br i1 %21, label %22, label %23

22:                                               ; preds = %19
  store i64 0, ptr %8, align 8, !tbaa !29
  store i32 0, ptr %9, align 4, !tbaa !39
  br label %31

23:                                               ; preds = %19
  %24 = load i32, ptr %9, align 4, !tbaa !39
  %25 = icmp eq i32 %24, 0
  br i1 %25, label %29, label %26

26:                                               ; preds = %23
  %27 = load i64, ptr %8, align 8, !tbaa !29
  %28 = icmp eq i64 %27, 0
  br i1 %28, label %29, label %30

29:                                               ; preds = %26, %23
  store ptr null, ptr %5, align 8
  store i32 1, ptr %12, align 4
  br label %61

30:                                               ; preds = %26
  br label %31

31:                                               ; preds = %30, %22
  %32 = call ptr @WebPINewDecoder(ptr noundef null)
  store ptr %32, ptr %11, align 8, !tbaa !10
  %33 = load ptr, ptr %11, align 8, !tbaa !10
  %34 = icmp eq ptr %33, null
  br i1 %34, label %35, label %36

35:                                               ; preds = %31
  store ptr null, ptr %5, align 8
  store i32 1, ptr %12, align 4
  br label %61

36:                                               ; preds = %31
  %37 = load i32, ptr %6, align 4, !tbaa !39
  %38 = load ptr, ptr %11, align 8, !tbaa !10
  %39 = getelementptr inbounds nuw %struct.WebPIDecoder, ptr %38, i32 0, i32 6
  %40 = getelementptr inbounds nuw %struct.WebPDecBuffer, ptr %39, i32 0, i32 0
  store i32 %37, ptr %40, align 8, !tbaa !40
  %41 = load i32, ptr %10, align 4, !tbaa !39
  %42 = load ptr, ptr %11, align 8, !tbaa !10
  %43 = getelementptr inbounds nuw %struct.WebPIDecoder, ptr %42, i32 0, i32 6
  %44 = getelementptr inbounds nuw %struct.WebPDecBuffer, ptr %43, i32 0, i32 3
  store i32 %41, ptr %44, align 4, !tbaa !41
  %45 = load ptr, ptr %7, align 8, !tbaa !28
  %46 = load ptr, ptr %11, align 8, !tbaa !10
  %47 = getelementptr inbounds nuw %struct.WebPIDecoder, ptr %46, i32 0, i32 6
  %48 = getelementptr inbounds nuw %struct.WebPDecBuffer, ptr %47, i32 0, i32 4
  %49 = getelementptr inbounds nuw %struct.WebPRGBABuffer, ptr %48, i32 0, i32 0
  store ptr %45, ptr %49, align 8, !tbaa !42
  %50 = load i32, ptr %9, align 4, !tbaa !39
  %51 = load ptr, ptr %11, align 8, !tbaa !10
  %52 = getelementptr inbounds nuw %struct.WebPIDecoder, ptr %51, i32 0, i32 6
  %53 = getelementptr inbounds nuw %struct.WebPDecBuffer, ptr %52, i32 0, i32 4
  %54 = getelementptr inbounds nuw %struct.WebPRGBABuffer, ptr %53, i32 0, i32 1
  store i32 %50, ptr %54, align 8, !tbaa !42
  %55 = load i64, ptr %8, align 8, !tbaa !29
  %56 = load ptr, ptr %11, align 8, !tbaa !10
  %57 = getelementptr inbounds nuw %struct.WebPIDecoder, ptr %56, i32 0, i32 6
  %58 = getelementptr inbounds nuw %struct.WebPDecBuffer, ptr %57, i32 0, i32 4
  %59 = getelementptr inbounds nuw %struct.WebPRGBABuffer, ptr %58, i32 0, i32 2
  store i64 %55, ptr %59, align 8, !tbaa !42
  %60 = load ptr, ptr %11, align 8, !tbaa !10
  store ptr %60, ptr %5, align 8
  store i32 1, ptr %12, align 4
  br label %61

61:                                               ; preds = %36, %35, %29, %18
  call void @llvm.lifetime.end.p0(i64 8, ptr %11) #6
  call void @llvm.lifetime.end.p0(i64 4, ptr %10) #6
  %62 = load ptr, ptr %5, align 8
  ret ptr %62
}