; Function Attrs: nounwind uwtable
define ptr @WebPINewRGB(i32 noundef %0, ptr noundef %1, i64 noundef %2, i32 noundef %3) local_unnamed_addr #0 {
  %.not = icmp ne ptr %1, null
  %5 = zext i1 %.not to i32
  %6 = icmp ugt i32 %0, 10
  br i1 %6, label %20, label %7

7:                                                ; preds = %4
  br i1 %.not, label %8, label %11

8:                                                ; preds = %7
  %9 = icmp eq i32 %3, 0
  %10 = icmp eq i64 %2, 0
  %or.cond = or i1 %10, %9
  br i1 %or.cond, label %20, label %11

11:                                               ; preds = %7, %8
  %.019 = phi i32 [ %3, %8 ], [ 0, %7 ]
  %.018 = phi i64 [ %2, %8 ], [ 0, %7 ]
  %12 = tail call fastcc ptr @NewDecoder(ptr noundef null, ptr noundef null)
  %13 = icmp eq ptr %12, null
  br i1 %13, label %20, label %14

14:                                               ; preds = %11
  %15 = getelementptr inbounds nuw i8, ptr %12, i64 352
  store i32 %0, ptr %15, align 8, !tbaa !29
  %16 = getelementptr inbounds nuw i8, ptr %12, i64 364
  store i32 %5, ptr %16, align 4, !tbaa !30
  %17 = getelementptr inbounds nuw i8, ptr %12, i64 368
  store ptr %1, ptr %17, align 8, !tbaa !31
  %18 = getelementptr inbounds nuw i8, ptr %12, i64 376
  store i32 %.019, ptr %18, align 8, !tbaa !31
  %19 = getelementptr inbounds nuw i8, ptr %12, i64 384
  store i64 %.018, ptr %19, align 8, !tbaa !31
  br label %20

20:                                               ; preds = %11, %8, %4, %14
  %.0 = phi ptr [ %12, %14 ], [ null, %4 ], [ null, %8 ], [ null, %11 ]
  ret ptr %.0
}